target datalayout = "e-m:e-p270:32:32-p271:32:32-p272:64:64-i64:64-i128:128-f80:128-n8:16:32:64-S128"
target triple = "x86_64-unknown-linux-gnu"

%"class.v8::IndirectHandleBase" = type { ptr }
%"class.std::__shared_count" = type { ptr }
%struct.uv__queue = type { ptr, ptr }
%struct.uv_async_s = type { ptr, ptr, i32, ptr, %struct.uv__queue, %union.anon.8, ptr, i32, ptr, %struct.uv__queue, i32 }
%union.anon.8 = type { [4 x ptr] }
%union.pthread_mutex_t = type { %struct.__pthread_mutex_s }
%struct.__pthread_mutex_s = type { i32, i32, i32, i32, i32, i16, i16, %struct.__pthread_internal_list }
%struct.__pthread_internal_list = type { ptr, ptr }
%"class.std::shared_ptr.262" = type { %"class.std::__shared_ptr.263" }
%"class.std::__shared_ptr.263" = type { ptr, %"class.std::__shared_count" }
%"class.node::CommonEnvironmentSetup" = type { ptr }
%"struct.node::CommonEnvironmentSetup::Impl" = type { ptr, %struct.uv_loop_s, %"class.std::shared_ptr.262", %"class.std::optional", ptr, %"class.std::unique_ptr.267", %"class.std::unique_ptr.275", %"class.v8::Global.283" }
%struct.uv_loop_s = type { ptr, i32, %struct.uv__queue, %union.anon.259, ptr, i32, i64, i32, %struct.uv__queue, %struct.uv__queue, ptr, i32, i32, %struct.uv__queue, %union.pthread_mutex_t, %struct.uv_async_s, %union.pthread_rwlock_t, ptr, %struct.uv__queue, %struct.uv__queue, %struct.uv__queue, %struct.uv__queue, %struct.uv__queue, ptr, %struct.uv__io_s, i32, %struct.anon, i64, i64, [2 x i32], %struct.uv__io_s, %struct.uv_signal_s, i32, %struct.uv__io_s, ptr, i32 }
%union.anon.259 = type { ptr }
%union.pthread_rwlock_t = type { %struct.__pthread_rwlock_arch_t }
%struct.__pthread_rwlock_arch_t = type { i32, i32, i32, i32, i32, i32, i32, i32, i8, [7 x i8], i64, i32 }
%struct.anon = type { ptr, i32 }
%struct.uv_signal_s = type { ptr, ptr, i32, ptr, %struct.uv__queue, %union.anon.260, ptr, i32, ptr, i32, %struct.anon.261, i32, i32 }
%union.anon.260 = type { [4 x ptr] }
%struct.anon.261 = type { ptr, ptr, ptr, i32 }
%struct.uv__io_s = type { ptr, %struct.uv__queue, %struct.uv__queue, i32, i32, i32 }
%"class.std::optional" = type { %"struct.std::_Optional_base" }
%"struct.std::_Optional_base" = type { %"struct.std::_Optional_payload" }
%"struct.std::_Optional_payload" = type { %"struct.std::_Optional_payload.base", [7 x i8] }
%"struct.std::_Optional_payload.base" = type { %"struct.std::_Optional_payload_base.base" }
%"struct.std::_Optional_payload_base.base" = type <{ %"union.std::_Optional_payload_base<v8::SnapshotCreator>::_Storage", i8 }>
%"union.std::_Optional_payload_base<v8::SnapshotCreator>::_Storage" = type { %"class.v8::SnapshotCreator" }
%"class.v8::SnapshotCreator" = type { ptr }
%"class.std::unique_ptr.267" = type { %"struct.std::__uniq_ptr_data.268" }
%"struct.std::__uniq_ptr_data.268" = type { %"class.std::__uniq_ptr_impl.269" }
%"class.std::__uniq_ptr_impl.269" = type { %"class.std::tuple.270" }
%"class.std::tuple.270" = type { %"struct.std::_Tuple_impl.271" }
%"struct.std::_Tuple_impl.271" = type { %"struct.std::_Head_base.274" }
%"struct.std::_Head_base.274" = type { ptr }
%"class.std::unique_ptr.275" = type { %"struct.std::__uniq_ptr_data.276" }
%"struct.std::__uniq_ptr_data.276" = type { %"class.std::__uniq_ptr_impl.277" }
%"class.std::__uniq_ptr_impl.277" = type { %"class.std::tuple.278" }
%"class.std::tuple.278" = type { %"struct.std::_Tuple_impl.279" }
%"struct.std::_Tuple_impl.279" = type { %"struct.std::_Head_base.282" }
%"struct.std::_Head_base.282" = type { ptr }
%"class.v8::Global.283" = type { %"class.v8::PersistentBase.284" }
%"class.v8::PersistentBase.284" = type { %"class.v8::IndirectHandleBase" }
%"struct.std::_Optional_payload_base" = type <{ %"union.std::_Optional_payload_base<v8::SnapshotCreator>::_Storage", i8, [7 x i8] }>

; Function Attrs: mustprogress nounwind uwtable
define linkonce_odr dso_local noundef nonnull align 8 dereferenceable(8) ptr @_ZNSt22_Optional_payload_baseIN2v815SnapshotCreatorEE6_M_getEv(ptr noundef nonnull align 8 dereferenceable(9) %this) #4 comdat align 2 {
entry:
  %this.addr = alloca ptr, align 8
  store ptr %this, ptr %this.addr, align 8
  %this1 = load ptr, ptr %this.addr, align 8
  %_M_payload = getelementptr inbounds %"struct.std::_Optional_payload_base", ptr %this1, i32 0, i32 0
  ret ptr %_M_payload
}

; Function Attrs: mustprogress noreturn nounwind uwtable
define linkonce_odr dso_local void @_ZSt27__throw_bad_optional_accessv() #11 comdat {
entry:
  call void @abort() #15
  unreachable
}

; Function Attrs: mustprogress nounwind uwtable
define linkonce_odr dso_local noundef nonnull align 8 dereferenceable(8) ptr @_ZNSt19_Optional_base_implIN2v815SnapshotCreatorESt14_Optional_baseIS1_Lb0ELb0EEE6_M_getEv(ptr noundef nonnull align 1 dereferenceable(1) %this) #4 comdat align 2 {
entry:
  %this.addr = alloca ptr, align 8
  store ptr %this, ptr %this.addr, align 8
  %this1 = load ptr, ptr %this.addr, align 8
  br label %do.body

do.body:                                          ; preds = %entry
  br label %do.end

do.end:                                           ; preds = %do.body
  %_M_payload = getelementptr inbounds %"struct.std::_Optional_base", ptr %this1, i32 0, i32 0
  %call = call noundef nonnull align 8 dereferenceable(8) ptr @_ZNSt22_Optional_payload_baseIN2v815SnapshotCreatorEE6_M_getEv(ptr noundef nonnull align 8 dereferenceable(9) %_M_payload) #3
  ret ptr %call
}

; Function Attrs: mustprogress nounwind uwtable
define linkonce_odr dso_local noundef zeroext i1 @_ZNKSt19_Optional_base_implIN2v815SnapshotCreatorESt14_Optional_baseIS1_Lb0ELb0EEE13_M_is_engagedEv(ptr noundef nonnull align 1 dereferenceable(1) %this) #4 comdat align 2 {
entry:
  %this.addr = alloca ptr, align 8
  store ptr %this, ptr %this.addr, align 8
  %this1 = load ptr, ptr %this.addr, align 8
  %_M_payload = getelementptr inbounds %"struct.std::_Optional_base", ptr %this1, i32 0, i32 0
  %_M_engaged = getelementptr inbounds %"struct.std::_Optional_payload_base", ptr %_M_payload, i32 0, i32 1
  %0 = load i8, ptr %_M_engaged, align 8
  %tobool = trunc i8 %0 to i1
  ret i1 %tobool
}

; Function Attrs: mustprogress nounwind uwtable
define linkonce_odr dso_local noundef nonnull align 8 dereferenceable(8) ptr @_ZNRSt8optionalIN2v815SnapshotCreatorEE5valueEv(ptr noundef nonnull align 8 dereferenceable(16) %this) #4 comdat align 2 {
entry:
  %this.addr = alloca ptr, align 8
  store ptr %this, ptr %this.addr, align 8
  %this1 = load ptr, ptr %this.addr, align 8
  %call = call noundef zeroext i1 @_ZNKSt19_Optional_base_implIN2v815SnapshotCreatorESt14_Optional_baseIS1_Lb0ELb0EEE13_M_is_engagedEv(ptr noundef nonnull align 1 dereferenceable(1) %this1) #3
  br i1 %call, label %if.then, label %if.end

if.then:                                          ; preds = %entry
  %call2 = call noundef nonnull align 8 dereferenceable(8) ptr @_ZNSt19_Optional_base_implIN2v815SnapshotCreatorESt14_Optional_baseIS1_Lb0ELb0EEE6_M_getEv(ptr noundef nonnull align 1 dereferenceable(1) %this1) #3
  ret ptr %call2

if.end:                                           ; preds = %entry
  call void @_ZSt27__throw_bad_optional_accessv() #18
  unreachable
}

; Function Attrs: mustprogress nounwind uwtable
define linkonce_odr dso_local noundef zeroext i1 @_ZNKSt8optionalIN2v815SnapshotCreatorEEcvbEv(ptr noundef nonnull align 8 dereferenceable(16) %this) #4 comdat align 2 {
entry:
  %this.addr = alloca ptr, align 8
  store ptr %this, ptr %this.addr, align 8
  %this1 = load ptr, ptr %this.addr, align 8
  %call = call noundef zeroext i1 @_ZNKSt19_Optional_base_implIN2v815SnapshotCreatorESt14_Optional_baseIS1_Lb0ELb0EEE13_M_is_engagedEv(ptr noundef nonnull align 1 dereferenceable(1) %this1) #3
  ret i1 %call
}

; Function Attrs: mustprogress nounwind uwtable
define dso_local noundef ptr @_ZN4node22CommonEnvironmentSetup16snapshot_creatorEv(ptr noundef nonnull align 8 dereferenceable(8) %this) #4 align 2 {
entry:
  %this.addr = alloca ptr, align 8
  store ptr %this, ptr %this.addr, align 8
  %this1 = load ptr, ptr %this.addr, align 8
  %impl_ = getelementptr inbounds %"class.node::CommonEnvironmentSetup", ptr %this1, i32 0, i32 0
  %0 = load ptr, ptr %impl_, align 8
  %snapshot_creator = getelementptr inbounds %"struct.node::CommonEnvironmentSetup::Impl", ptr %0, i32 0, i32 3
  %call = call noundef zeroext i1 @_ZNKSt8optionalIN2v815SnapshotCreatorEEcvbEv(ptr noundef nonnull align 8 dereferenceable(16) %snapshot_creator) #3
  br i1 %call, label %cond.true, label %cond.false

cond.true:                                        ; preds = %entry
  %impl_2 = getelementptr inbounds %"class.node::CommonEnvironmentSetup", ptr %this1, i32 0, i32 0
  %1 = load ptr, ptr %impl_2, align 8
  %snapshot_creator3 = getelementptr inbounds %"struct.node::CommonEnvironmentSetup::Impl", ptr %1, i32 0, i32 3
  %call4 = call noundef nonnull align 8 dereferenceable(8) ptr @_ZNRSt8optionalIN2v815SnapshotCreatorEE5valueEv(ptr noundef nonnull align 8 dereferenceable(16) %snapshot_creator3)
  br label %cond.end

cond.false:                                       ; preds = %entry
  br label %cond.end

cond.end:                                         ; preds = %cond.false, %cond.true
  %cond = phi ptr [ %call4, %cond.true ], [ null, %cond.false ]
  ret ptr %cond
}