; Function Attrs: mustprogress nofree norecurse nosync nounwind willreturn memory(read, inaccessiblemem: none) uwtable
define dso_local noundef ptr @_ZN4node22CommonEnvironmentSetup16snapshot_creatorEv(ptr nocapture noundef nonnull readonly align 8 dereferenceable(8) %this) local_unnamed_addr #9 align 2 {
entry:
  %0 = load ptr, ptr %this, align 8
  %snapshot_creator = getelementptr inbounds i8, ptr %0, i64 872
  %_M_engaged.i.i = getelementptr inbounds i8, ptr %0, i64 880
  %1 = load i8, ptr %_M_engaged.i.i, align 8
  %2 = and i8 %1, 1
  %tobool.i.i.not = icmp eq i8 %2, 0
  %spec.select = select i1 %tobool.i.i.not, ptr null, ptr %snapshot_creator
  ret ptr %spec.select
}